target datalayout = "e-m:e-p270:32:32-p271:32:32-p272:64:64-i64:64-i128:128-f80:128-n8:16:32:64-S128"
target triple = "x86_64-pc-linux-gnu"

%struct.list = type { ptr, ptr, ptr, ptr, ptr, i64 }

; Function Attrs: nounwind uwtable
define dso_local void @ldbFlushLog(ptr noundef %0) #0 {
  %2 = alloca ptr, align 8
  %3 = alloca ptr, align 8
  store ptr %0, ptr %2, align 8, !tbaa !81
  call void @llvm.lifetime.start.p0(i64 8, ptr %3) #14
  br label %4

4:                                                ; preds = %9, %1
  %5 = load ptr, ptr %2, align 8, !tbaa !81
  %6 = getelementptr inbounds nuw %struct.list, ptr %5, i32 0, i32 0
  %7 = load ptr, ptr %6, align 8, !tbaa !137
  store ptr %7, ptr %3, align 8, !tbaa !138
  %8 = icmp ne ptr %7, null
  br i1 %8, label %9, label %12

9:                                                ; preds = %4
  %10 = load ptr, ptr %2, align 8, !tbaa !81
  %11 = load ptr, ptr %3, align 8, !tbaa !138
  call void @listDelNode(ptr noundef %10, ptr noundef %11)
  br label %4, !llvm.loop !156

12:                                               ; preds = %4
  call void @llvm.lifetime.end.p0(i64 8, ptr %3) #14
  ret void
}