; Function Attrs: nounwind uwtable
define dso_local void @ldbFlushLog(ptr noundef %0) local_unnamed_addr #0 {
  %2 = load ptr, ptr %0, align 8, !tbaa !124
  %.not3 = icmp eq ptr %2, null
  br i1 %.not3, label %._crit_edge, label %.lr.ph

.lr.ph:                                           ; preds = %1, %.lr.ph
  %3 = phi ptr [ %4, %.lr.ph ], [ %2, %1 ]
  tail call void @listDelNode(ptr noundef nonnull %0, ptr noundef nonnull %3) #19
  %4 = load ptr, ptr %0, align 8, !tbaa !124
  %.not = icmp eq ptr %4, null
  br i1 %.not, label %._crit_edge, label %.lr.ph, !llvm.loop !137

._crit_edge:                                      ; preds = %.lr.ph, %1
  ret void
}